; Function Attrs: mustprogress uwtable
define void @_ZN3net19QuicPacketGenerator26GenerateMtuDiscoveryPacketEmPNS_24QuicAckListenerInterfaceE(ptr noundef nonnull align 8 dereferenceable(472) %0, i64 noundef %1, ptr noundef %2) local_unnamed_addr #0 align 2 personality ptr @__gxx_personality_v0 {
  %4 = alloca %"class.logging::LogMessage", align 8
  %5 = alloca %"struct.net::QuicFrame", align 8
  %6 = getelementptr inbounds nuw i8, ptr %0, i64 8
  %7 = tail call noundef zeroext i1 @_ZNK3net17QuicPacketCreator21CanSetMaxPacketLengthEv(ptr noundef nonnull align 8 dereferenceable(312) %6)
  br i1 %7, label %16, label %8

8:                                                ; preds = %3
  %9 = tail call noundef zeroext i1 @_ZN7logging22ShouldCreateLogMessageEi(i32 noundef 2)
  br i1 %9, label %10, label %.critedge12

10:                                               ; preds = %8
  call void @llvm.lifetime.start.p0(i64 408, ptr nonnull %4) #16
  call void @_ZN7logging10LogMessageC1EPKcii(ptr noundef nonnull align 8 dereferenceable(404) %4, ptr noundef nonnull @.str, i32 noundef 156, i32 noundef 2)
  %11 = getelementptr inbounds nuw i8, ptr %4, i64 8
  %12 = invoke noundef nonnull align 8 dereferenceable(8) ptr @_ZSt16__ostream_insertIcSt11char_traitsIcEERSt13basic_ostreamIT_T0_ES6_PKS3_l(ptr noundef nonnull align 8 dereferenceable(8) %11, ptr noundef nonnull @.str.5, i64 noundef 56)
          to label %_ZStlsISt11char_traitsIcEERSt13basic_ostreamIcT_ES5_PKc.exit unwind label %14

_ZStlsISt11char_traitsIcEERSt13basic_ostreamIcT_ES5_PKc.exit: ; preds = %10
  %13 = invoke noundef nonnull align 8 dereferenceable(8) ptr @_ZSt16__ostream_insertIcSt11char_traitsIcEERSt13basic_ostreamIT_T0_ES6_PKS3_l(ptr noundef nonnull align 8 dereferenceable(8) %11, ptr noundef nonnull @.str.6, i64 noundef 24)
          to label %.critedge unwind label %14

.critedge:                                        ; preds = %_ZStlsISt11char_traitsIcEERSt13basic_ostreamIcT_ES5_PKc.exit
  call void @_ZN7logging10LogMessageD1Ev(ptr noundef nonnull align 8 dereferenceable(404) %4) #16
  call void @llvm.lifetime.end.p0(i64 408, ptr nonnull %4) #16
  br label %.critedge12

14:                                               ; preds = %_ZStlsISt11char_traitsIcEERSt13basic_ostreamIcT_ES5_PKc.exit, %10
  %15 = landingpad { ptr, i32 }
          cleanup
  call void @_ZN7logging10LogMessageD1Ev(ptr noundef nonnull align 8 dereferenceable(404) %4) #16
  call void @llvm.lifetime.end.p0(i64 408, ptr nonnull %4) #16
  resume { ptr, i32 } %15

16:                                               ; preds = %3
  %17 = getelementptr inbounds nuw i8, ptr %0, i64 104
  %18 = load i64, ptr %17, align 8, !tbaa !106
  call void @llvm.lifetime.start.p0(i64 16, ptr nonnull %5) #16
  call void @_ZN3net9QuicFrameC1ENS_21QuicMtuDiscoveryFrameE(ptr noundef nonnull align 8 dereferenceable(16) %5)
  call void @_ZN3net17QuicPacketCreator18SetMaxPacketLengthEm(ptr noundef nonnull align 8 dereferenceable(312) %6, i64 noundef %1)
  %19 = call noundef zeroext i1 @_ZN3net17QuicPacketCreator19AddPaddedSavedFrameERKNS_9QuicFrameE(ptr noundef nonnull align 8 dereferenceable(312) %6, ptr noundef nonnull align 8 dereferenceable(16) %5)
  %.not = icmp eq ptr %2, null
  br i1 %.not, label %21, label %20

20:                                               ; preds = %16
  call void @_ZN3net17QuicPacketCreator14AddAckListenerEPNS_24QuicAckListenerInterfaceEt(ptr noundef nonnull align 8 dereferenceable(312) %6, ptr noundef nonnull %2, i16 noundef zeroext 0)
  br label %21

21:                                               ; preds = %20, %16
  call void @_ZN3net17QuicPacketCreator5FlushEv(ptr noundef nonnull align 8 dereferenceable(312) %6)
  call void @_ZN3net17QuicPacketCreator18SetMaxPacketLengthEm(ptr noundef nonnull align 8 dereferenceable(312) %6, i64 noundef %18)
  call void @llvm.lifetime.end.p0(i64 16, ptr nonnull %5) #16
  br label %.critedge12

.critedge12:                                      ; preds = %.critedge, %8, %21
  ret void
}